; Function Attrs: nounwind uwtable
define void @Cec_GiaSplitPrintRefs(ptr noundef %0) local_unnamed_addr #0 {
  %2 = getelementptr inbounds nuw i8, ptr %0, i64 144
  %3 = load ptr, ptr %2, align 8, !tbaa !3
  %4 = icmp eq ptr %3, null
  br i1 %4, label %5, label %6

5:                                                ; preds = %1
  tail call void @Gia_ManCreateRefs(ptr noundef nonnull %0) #18
  br label %6

6:                                                ; preds = %5, %1
  %7 = getelementptr i8, ptr %0, i64 32
  %8 = getelementptr i8, ptr %0, i64 16
  %9 = getelementptr i8, ptr %0, i64 64
  %.val1014 = load i32, ptr %8, align 8, !tbaa !34
  %.val1115 = load ptr, ptr %9, align 8, !tbaa !35
  %10 = getelementptr i8, ptr %.val1115, i64 4
  %.val11.val16 = load i32, ptr %10, align 4, !tbaa !36
  %11 = icmp sgt i32 %.val11.val16, %.val1014
  br i1 %11, label %.lr.ph, label %.critedge

.lr.ph:                                           ; preds = %6, %12
  %indvars.iv = phi i64 [ %indvars.iv.next, %12 ], [ 0, %6 ]
  %.val1118 = phi ptr [ %.val11, %12 ], [ %.val1115, %6 ]
  %.val12 = load ptr, ptr %7, align 8, !tbaa !29
  %.not = icmp eq ptr %.val12, null
  br i1 %.not, label %.critedge, label %12

12:                                               ; preds = %.lr.ph
  %13 = getelementptr i8, ptr %.val1118, i64 8
  %.val13.val = load ptr, ptr %13, align 8, !tbaa !38
  %14 = getelementptr inbounds nuw i32, ptr %.val13.val, i64 %indvars.iv
  %15 = load i32, ptr %14, align 4, !tbaa !30
  %16 = zext i32 %15 to i64
  %.val9 = load ptr, ptr %2, align 8, !tbaa !3
  %sext.i = shl nuw i64 %16, 32
  %17 = ashr exact i64 %sext.i, 30
  %18 = getelementptr inbounds i8, ptr %.val9, i64 %17
  %19 = load i32, ptr %18, align 4, !tbaa !30
  %20 = tail call i32 (ptr, ...) @printf(ptr noundef nonnull dereferenceable(1) @.str.13, i32 noundef %19)
  %indvars.iv.next = add nuw nsw i64 %indvars.iv, 1
  %.val10 = load i32, ptr %8, align 8, !tbaa !34
  %.val11 = load ptr, ptr %9, align 8, !tbaa !35
  %21 = getelementptr i8, ptr %.val11, i64 4
  %.val11.val = load i32, ptr %21, align 4, !tbaa !36
  %22 = sub nsw i32 %.val11.val, %.val10
  %23 = sext i32 %22 to i64
  %24 = icmp slt i64 %indvars.iv.next, %23
  br i1 %24, label %.lr.ph, label %.critedge, !llvm.loop !62

.critedge:                                        ; preds = %.lr.ph, %12, %6
  %putchar = tail call i32 @putchar(i32 10)
  ret void
}